Certificate:
    Data:
        Version: 3 (0x2)
        Serial Number: 11 (0xb)
    Signature Algorithm: sha256WithRSAEncryption
        Issuer: O=Foobar Ltd.
        Validity
            Not Before: Nov 17 00:43:41 2014 GMT
            Not After : Nov 14 00:43:41 2024 GMT
        Subject: O=tor_dns_tunnel, CN=tor_dns_tunnel
        Subject Public Key Info:
            Public Key Algorithm: rsaEncryption
                Public-Key: (4096 bit)
                Modulus:
                    00:bf:da:b5:9d:fb:1c:ec:23:95:5d:48:70:ea:7c:
                    d8:58:3e:67:35:b0:c8:07:e4:30:e0:9f:a4:c4:dd:
                    23:f9:45:d6:c9:f0:aa:7d:e6:c4:ca:c6:ee:ac:c3:
                    4b:90:fd:ff:ff:ea:98:55:8b:51:a2:90:a4:cd:43:
                    2b:2c:a4:61:89:0e:04:74:c9:23:af:aa:06:3c:e3:
                    42:dc:9a:c4:c9:bd:22:2a:25:12:fd:aa:6d:94:10:
                    a2:42:eb:42:86:d6:93:75:13:06:b5:f9:a9:01:7a:
                    d4:bd:f5:6a:8b:e5:cd:de:fd:01:e9:81:51:63:fc:
                    dd:f2:af:cd:da:0e:87:8e:6f:ab:8d:dd:e0:5e:b6:
                    84:f9:ac:3a:7d:d5:6f:cf:09:55:7d:e8:b3:4e:ee:
                    fe:f4:1d:6e:fb:64:84:b7:04:44:48:dd:3c:14:8c:
                    0b:a8:42:bc:85:32:2a:a9:f6:07:5b:15:e6:63:92:
                    4e:7b:b9:0c:00:92:ad:65:da:2b:33:8d:23:a9:8e:
                    18:bc:5f:38:81:81:a6:ce:1a:74:81:9b:d1:e6:85:
                    55:ba:d8:af:ed:97:b2:0e:c2:ba:67:7b:15:61:5f:
                    a7:f8:aa:c3:76:be:ce:07:f0:26:b5:87:75:72:27:
                    3b:d6:52:3f:c5:e1:a2:a2:5a:c2:2d:22:38:2c:c9:
                    9b:bc:01:ce:8b:b8:3b:71:52:bd:0e:c8:74:b6:fb:
                    b4:87:5f:a4:24:9a:44:39:06:17:b4:1b:60:50:ca:
                    74:4f:10:a1:71:3c:ed:be:89:54:79:e4:24:a0:ba:
                    e1:2d:0c:f3:b4:d0:05:c4:40:9e:cc:82:01:9c:ba:
                    b8:5b:4b:78:e3:bd:dd:6d:52:64:55:bd:cf:77:35:
                    42:8b:d3:c5:62:80:17:01:d9:2c:15:75:8b:0a:ff:
                    ee:cd:00:8b:56:ff:f1:33:a0:72:66:56:95:de:01:
                    2b:e8:6b:f1:d4:08:a9:11:9f:e2:95:1f:fb:2b:02:
                    e8:f5:ca:41:0a:54:97:3f:e5:a8:7c:57:c1:5e:99:
                    9a:ef:f7:b6:95:f4:de:fa:87:34:a1:2a:72:27:4c:
                    2a:8d:cb:b3:85:93:53:f3:5c:de:2b:1b:29:ab:29:
                    b3:6c:ce:ab:c2:0e:81:52:2e:69:19:47:75:39:f3:
                    ad:67:1b:e3:dc:6c:8e:b8:0a:e9:29:53:e7:6c:5c:
                    6e:dc:19:e1:30:79:27:66:da:3e:7d:51:e9:73:cc:
                    5f:05:49:cb:6d:4d:3e:58:27:7f:7c:d0:65:92:1b:
                    09:b2:ec:09:21:b2:5c:76:b4:74:9f:6c:04:e9:63:
                    0b:2b:ae:28:0a:99:d7:a4:f7:85:ec:b6:7d:29:b3:
                    6a:b7:75
                Exponent: 65537 (0x10001)
        X509v3 extensions:
            X509v3 Basic Constraints: 
                CA:FALSE
            X509v3 Subject Key Identifier: 
                45:1B:9E:7B:CC:F5:A2:C1:DC:4C:C0:98:41:22:33:7A:D6:70:57:FA
            X509v3 Authority Key Identifier: 
                DirName:/O=Foobar Ltd.
                serial:E6:A0:E8:0A:CE:A0:59:C9

            X509v3 Subject Alternative Name: 
                DNS:t.co, DNS:*.t.co, DNS:bit.ly, DNS:*.bit.ly, DNS:fb.me, DNS:*.fb.me, DNS:facebook.com, DNS:*.facebook.com, DNS:twitter.com, DNS:*.twitter.com, DNS:appengine.google.com, DNS:*.appengine.google.com, DNS:cloud.google.com, DNS:*.cloud.google.com, DNS:google-analytics.com, DNS:*.google-analytics.com, DNS:google.ca, DNS:*.google.ca, DNS:google.cl, DNS:*.google.cl, DNS:google.co.in, DNS:*.google.co.in, DNS:google.co.jp, DNS:*.google.co.jp, DNS:google.co.uk, DNS:*.google.co.uk, DNS:google.com.ar, DNS:*.google.com.ar, DNS:google.com.au, DNS:*.google.com.au, DNS:google.com.br, DNS:*.google.com.br, DNS:google.com.co, DNS:*.google.com.co, DNS:google.com.mx, DNS:*.google.com.mx, DNS:google.com.tr, DNS:*.google.com.tr, DNS:google.com.vn, DNS:*.google.com.vn, DNS:google.de, DNS:*.google.de, DNS:google.es, DNS:*.google.es, DNS:google.fr, DNS:*.google.fr, DNS:google.hu, DNS:*.google.hu, DNS:google.it, DNS:*.google.it, DNS:google.nl, DNS:*.google.nl, DNS:google.pl, DNS:*.google.pl, DNS:google.pt, DNS:*.google.pt, DNS:googleadapis.com, DNS:*.googleadapis.com, DNS:googleapis.cn, DNS:*.googleapis.cn, DNS:googlecommerce.com, DNS:*.googlecommerce.com, DNS:googlevideo.com, DNS:*.googlevideo.com, DNS:gstatic.cn, DNS:gstatic.cn, DNS:*.gstatic.com, DNS:gvt1.com, DNS:*.gvt1.com, DNS:gvt2.com, DNS:*.gvt2.com, DNS:metric.gstatic.com, DNS:*.metric.gstatic.com, DNS:urchin.com, DNS:*.urchin.com, DNS:*.url.google.com, DNS:*.youtube-nocookie.com, DNS:*.youtube.com, DNS:*.youtubeeducation.com, DNS:*.ytimg.com, DNS:android.com, DNS:*.android.com, DNS:g.co, DNS:*.g.co, DNS:goo.gl, DNS:*.goo.gl, DNS:google-analytics.com, DNS:*.google-analytics.com, DNS:google.com, DNS:*.google.com, DNS:googlecommerce.com, DNS:*.googlecommerce.com, DNS:urchin.com, DNS:*.urchin.com, DNS:youtu.be, DNS:*.youtu.be, DNS:youtube.com, DNS:*.youtube.com, DNS:youtubeeducation.com, DNS:*.youtubeeducation.com
    Signature Algorithm: sha256WithRSAEncryption
         42:48:37:8a:a4:7f:bd:c2:ab:d7:44:de:f1:40:c0:69:4b:9b:
         21:cd:35:03:d6:c7:33:7d:10:fe:03:79:cc:df:0a:92:3e:d8:
         e3:d5:dc:95:de:6b:7a:01:01:ab:f9:6f:f8:20:0c:22:23:ef:
         d8:bd:b4:e6:62:8d:d8:90:71:e0:4f:8d:2f:55:43:f8:3f:64:
         71:17:68:35:6a:7a:ee:2c:a7:11:4d:83:0c:49:f7:e0:32:28:
         9a:2d:73:37:d5:24:4d:c0:5a:75:09:1a:da:a7:9b:a5:c5:3e:
         06:1b:f3:8f:4a:e3:43:ff:f9:c3:7a:f0:61:c5:77:f9:4f:82:
         b3:57:12:87:3d:f6:14:46:09:5d:38:9d:0b:04:4d:07:4c:41:
         cf:74:2b:39:23:c9:02:28:e5:84:cd:2b:75:8c:b1:db:b9:2b:
         b8:95:58:b6:f5:f5:fb:fa:68:2f:34:93:10:d4:07:14:ac:43:
         bf:83:47:75:a8:94:94:0a:ef:8d:89:a4:7e:5a:59:64:2e:67:
         70:d4:b0:5a:90:fb:86:c6:33:5d:ce:6f:d6:5e:96:ff:d8:af:
         e0:1d:a6:28:70:bf:b0:c2:15:34:0b:7d:d3:09:cf:79:47:ed:
         f5:d3:e7:c4:84:4a:67:3b:9b:0e:28:d0:b8:8f:0b:d0:52:94:
         3a:3f:a9:cd:c8:6a:62:ae:73:bb:39:07:57:47:19:07:8d:c8:
         26:59:28:01:8f:67:47:d7:3e:73:51:87:85:dd:3d:4b:10:60:
         1c:cf:ff:f4:de:41:cf:82:23:bc:8a:ca:78:78:80:b0:a7:a3:
         7c:c7:5b:d8:b8:e3:d7:79:0e:8b:e6:01:b4:7e:78:f8:75:c1:
         cf:b3:66:2b:56:bc:eb:c5:11:5c:ff:62:72:28:f1:db:ba:14:
         d7:85:5a:8e:ff:a5:25:be:92:95:da:37:b1:fa:6a:ce:70:6c:
         51:a1:20:96:05:b8:7f:bf:f5:01:a5:21:fa:7c:a6:8d:b2:53:
         ce:23:ad:f0:a3:cb:36:21:4c:06:98:dc:53:5e:fe:e9:5c:92:
         b8:8b:ab:6c:fd:c7:e6:7e:d5:98:29:03:18:33:09:bd:a4:85:
         4a:f5:ff:7e:43:1f:05:5b:c2:e5:af:37:f0:71:61:b3:ca:eb:
         86:f0:75:99:d7:e7:a9:d6:d1:8a:94:63:18:f4:0c:11:9c:da:
         09:82:82:ef:c8:86:19:b0:05:4a:3e:68:ce:fc:78:33:15:c6:
         5a:f0:ad:b8:01:36:ba:29:a4:b4:e5:e8:f6:36:7d:c7:89:a3:
         79:09:50:ac:f5:4b:30:28:a1:74:46:36:47:84:77:34:bf:02:
         96:12:fe:02:ab:72:dc:72
-----BEGIN CERTIFICATE-----
MIIK/TCCCOWgAwIBAgIBCzANBgkqhkiG9w0BAQsFADAWMRQwEgYDVQQKEwtGb29i
YXIgTHRkLjAeFw0xNDExMTcwMDQzNDFaFw0yNDExMTQwMDQzNDFaMDIxFzAVBgNV
BAoUDnRvcl9kbnNfdHVubmVsMRcwFQYDVQQDFA50b3JfZG5zX3R1bm5lbDCCAiIw
DQYJKoZIhvcNAQEBBQADggIPADCCAgoCggIBAL/atZ37HOwjlV1IcOp82Fg+ZzWw
yAfkMOCfpMTdI/lF1snwqn3mxMrG7qzDS5D9///qmFWLUaKQpM1DKyykYYkOBHTJ
I6+qBjzjQtyaxMm9IiolEv2qbZQQokLrQobWk3UTBrX5qQF61L31aovlzd79AemB
UWP83fKvzdoOh45vq43d4F62hPmsOn3Vb88JVX3os07u/vQdbvtkhLcEREjdPBSM
C6hCvIUyKqn2B1sV5mOSTnu5DACSrWXaKzONI6mOGLxfOIGBps4adIGb0eaFVbrY
r+2Xsg7Cumd7FWFfp/iqw3a+zgfwJrWHdXInO9ZSP8XhoqJawi0iOCzJm7wBzou4
O3FSvQ7IdLb7tIdfpCSaRDkGF7QbYFDKdE8QoXE87b6JVHnkJKC64S0M87TQBcRA
nsyCAZy6uFtLeOO93W1SZFW9z3c1QovTxWKAFwHZLBV1iwr/7s0Ai1b/8TOgcmZW
ld4BK+hr8dQIqRGf4pUf+ysC6PXKQQpUlz/lqHxXwV6Zmu/3tpX03vqHNKEqcidM
Ko3Ls4WTU/Nc3isbKasps2zOq8IOgVIuaRlHdTnzrWcb49xsjrgK6SlT52xcbtwZ
4TB5J2baPn1R6XPMXwVJy21NPlgnf3zQZZIbCbLsCSGyXHa0dJ9sBOljCyuuKAqZ
16T3hey2fSmzard1AgMBAAGjggY4MIIGNDAJBgNVHRMEAjAAMB0GA1UdDgQWBBRF
G557zPWiwdxMwJhBIjN61nBX+jAwBgNVHSMEKTAnoRqkGDAWMRQwEgYDVQQKEwtG
b29iYXIgTHRkLoIJAOag6ArOoFnJMIIF1AYDVR0RBIIFyzCCBceCBHQuY2+CBiou
dC5jb4IGYml0Lmx5gggqLmJpdC5seYIFZmIubWWCByouZmIubWWCDGZhY2Vib29r
LmNvbYIOKi5mYWNlYm9vay5jb22CC3R3aXR0ZXIuY29tgg0qLnR3aXR0ZXIuY29t
ghRhcHBlbmdpbmUuZ29vZ2xlLmNvbYIWKi5hcHBlbmdpbmUuZ29vZ2xlLmNvbYIQ
Y2xvdWQuZ29vZ2xlLmNvbYISKi5jbG91ZC5nb29nbGUuY29tghRnb29nbGUtYW5h
bHl0aWNzLmNvbYIWKi5nb29nbGUtYW5hbHl0aWNzLmNvbYIJZ29vZ2xlLmNhggsq
Lmdvb2dsZS5jYYIJZ29vZ2xlLmNsggsqLmdvb2dsZS5jbIIMZ29vZ2xlLmNvLmlu
gg4qLmdvb2dsZS5jby5pboIMZ29vZ2xlLmNvLmpwgg4qLmdvb2dsZS5jby5qcIIM
Z29vZ2xlLmNvLnVrgg4qLmdvb2dsZS5jby51a4INZ29vZ2xlLmNvbS5hcoIPKi5n
b29nbGUuY29tLmFygg1nb29nbGUuY29tLmF1gg8qLmdvb2dsZS5jb20uYXWCDWdv
b2dsZS5jb20uYnKCDyouZ29vZ2xlLmNvbS5icoINZ29vZ2xlLmNvbS5jb4IPKi5n
b29nbGUuY29tLmNvgg1nb29nbGUuY29tLm14gg8qLmdvb2dsZS5jb20ubXiCDWdv
b2dsZS5jb20udHKCDyouZ29vZ2xlLmNvbS50coINZ29vZ2xlLmNvbS52boIPKi5n
b29nbGUuY29tLnZugglnb29nbGUuZGWCCyouZ29vZ2xlLmRlgglnb29nbGUuZXOC
CyouZ29vZ2xlLmVzgglnb29nbGUuZnKCCyouZ29vZ2xlLmZygglnb29nbGUuaHWC
CyouZ29vZ2xlLmh1gglnb29nbGUuaXSCCyouZ29vZ2xlLml0gglnb29nbGUubmyC
CyouZ29vZ2xlLm5sgglnb29nbGUucGyCCyouZ29vZ2xlLnBsgglnb29nbGUucHSC
CyouZ29vZ2xlLnB0ghBnb29nbGVhZGFwaXMuY29tghIqLmdvb2dsZWFkYXBpcy5j
b22CDWdvb2dsZWFwaXMuY26CDyouZ29vZ2xlYXBpcy5jboISZ29vZ2xlY29tbWVy
Y2UuY29tghQqLmdvb2dsZWNvbW1lcmNlLmNvbYIPZ29vZ2xldmlkZW8uY29tghEq
Lmdvb2dsZXZpZGVvLmNvbYIKZ3N0YXRpYy5jboIKZ3N0YXRpYy5jboINKi5nc3Rh
dGljLmNvbYIIZ3Z0MS5jb22CCiouZ3Z0MS5jb22CCGd2dDIuY29tggoqLmd2dDIu
Y29tghJtZXRyaWMuZ3N0YXRpYy5jb22CFCoubWV0cmljLmdzdGF0aWMuY29tggp1
cmNoaW4uY29tggwqLnVyY2hpbi5jb22CECoudXJsLmdvb2dsZS5jb22CFioueW91
dHViZS1ub2Nvb2tpZS5jb22CDSoueW91dHViZS5jb22CFioueW91dHViZWVkdWNh
dGlvbi5jb22CCyoueXRpbWcuY29tggthbmRyb2lkLmNvbYINKi5hbmRyb2lkLmNv
bYIEZy5jb4IGKi5nLmNvggZnb28uZ2yCCCouZ29vLmdsghRnb29nbGUtYW5hbHl0
aWNzLmNvbYIWKi5nb29nbGUtYW5hbHl0aWNzLmNvbYIKZ29vZ2xlLmNvbYIMKi5n
b29nbGUuY29tghJnb29nbGVjb21tZXJjZS5jb22CFCouZ29vZ2xlY29tbWVyY2Uu
Y29tggp1cmNoaW4uY29tggwqLnVyY2hpbi5jb22CCHlvdXR1LmJlggoqLnlvdXR1
LmJlggt5b3V0dWJlLmNvbYINKi55b3V0dWJlLmNvbYIUeW91dHViZWVkdWNhdGlv
bi5jb22CFioueW91dHViZWVkdWNhdGlvbi5jb20wDQYJKoZIhvcNAQELBQADggIB
AEJIN4qkf73Cq9dE3vFAwGlLmyHNNQPWxzN9EP4DeczfCpI+2OPV3JXea3oBAav5
b/ggDCIj79i9tOZijdiQceBPjS9VQ/g/ZHEXaDVqeu4spxFNgwxJ9+AyKJotczfV
JE3AWnUJGtqnm6XFPgYb849K40P/+cN68GHFd/lPgrNXEoc99hRGCV04nQsETQdM
Qc90KzkjyQIo5YTNK3WMsdu5K7iVWLb19fv6aC80kxDUBxSsQ7+DR3WolJQK742J
pH5aWWQuZ3DUsFqQ+4bGM13Ob9Zelv/Yr+Adpihwv7DCFTQLfdMJz3lH7fXT58SE
Smc7mw4o0LiPC9BSlDo/qc3IamKuc7s5B1dHGQeNyCZZKAGPZ0fXPnNRh4XdPUsQ
YBzP//TeQc+CI7yKynh4gLCno3zHW9i449d5DovmAbR+ePh1wc+zZitWvOvFEVz/
YnIo8du6FNeFWo7/pSW+kpXaN7H6as5wbFGhIJYFuH+/9QGlIfp8po2yU84jrfCj
yzYhTAaY3FNe/ulckriLq2z9x+Z+1ZgpAxgzCb2khUr1/35DHwVbwuWvN/BxYbPK
64bwdZnX56nW0YqUYxj0DBGc2gmCgu/IhhmwBUo+aM78eDMVxlrwrbgBNroppLTl
6PY2fceJo3kJUKz1SzAooXRGNkeEdzS/ApYS/gKrctxy
-----END CERTIFICATE-----
